target datalayout = "e-m:e-p270:32:32-p271:32:32-p272:64:64-i64:64-i128:128-f80:128-n8:16:32:64-S128"
target triple = "x86_64-pc-linux-gnu"

%struct.UDataSwapper = type { i8, i8, i8, i8, ptr, ptr, ptr, ptr, ptr, ptr, ptr, ptr, ptr, ptr, ptr }

@.str.43 = private unnamed_addr constant [85 x i8] c"unames/makeTokenMap() finds variant character 0x%02x used (input charset family %d)\0A\00", align 1

; Function Attrs: inlinehint mustprogress nounwind uwtable
define internal noundef signext i8 @_ZL9U_FAILURE10UErrorCode(i32 noundef %0) #2 {
  %2 = alloca i32, align 4
  store i32 %0, ptr %2, align 4, !tbaa !13
  %3 = load i32, ptr %2, align 4, !tbaa !13
  %4 = icmp sgt i32 %3, 0
  %5 = zext i1 %4 to i8
  ret i8 %5
}

; Function Attrs: mustprogress uwtable
define internal void @_ZL12makeTokenMapPK12UDataSwapperPstPhP10UErrorCode(ptr noundef %0, ptr noundef %1, i16 noundef zeroext %2, ptr noundef %3, ptr noundef %4) #0 {
  %6 = alloca ptr, align 8
  %7 = alloca ptr, align 8
  %8 = alloca i16, align 2
  %9 = alloca ptr, align 8
  %10 = alloca ptr, align 8
  %11 = alloca [256 x i8], align 16
  %12 = alloca i16, align 2
  %13 = alloca i16, align 2
  %14 = alloca i8, align 1
  %15 = alloca i8, align 1
  %16 = alloca i32, align 4
  store ptr %0, ptr %6, align 8, !tbaa !77
  store ptr %1, ptr %7, align 8, !tbaa !32
  store i16 %2, ptr %8, align 2, !tbaa !26
  store ptr %3, ptr %9, align 8, !tbaa !9
  store ptr %4, ptr %10, align 8, !tbaa !12
  call void @llvm.lifetime.start.p0(i64 256, ptr %11) #12
  call void @llvm.lifetime.start.p0(i64 2, ptr %12) #12
  call void @llvm.lifetime.start.p0(i64 2, ptr %13) #12
  call void @llvm.lifetime.start.p0(i64 1, ptr %14) #12
  call void @llvm.lifetime.start.p0(i64 1, ptr %15) #12
  %17 = load ptr, ptr %10, align 8, !tbaa !12
  %18 = load i32, ptr %17, align 4, !tbaa !13
  %19 = call noundef signext i8 @_ZL9U_FAILURE10UErrorCode(i32 noundef %18)
  %20 = icmp ne i8 %19, 0
  br i1 %20, label %21, label %22

21:                                               ; preds = %5
  store i32 1, ptr %16, align 4
  br label %143

22:                                               ; preds = %5
  %23 = load ptr, ptr %6, align 8, !tbaa !77
  %24 = getelementptr inbounds nuw %struct.UDataSwapper, ptr %23, i32 0, i32 1
  %25 = load i8, ptr %24, align 1, !tbaa !89
  %26 = zext i8 %25 to i32
  %27 = load ptr, ptr %6, align 8, !tbaa !77
  %28 = getelementptr inbounds nuw %struct.UDataSwapper, ptr %27, i32 0, i32 3
  %29 = load i8, ptr %28, align 1, !tbaa !90
  %30 = zext i8 %29 to i32
  %31 = icmp eq i32 %26, %30
  br i1 %31, label %32, label %48

32:                                               ; preds = %22
  store i16 0, ptr %12, align 2, !tbaa !26
  br label %33

33:                                               ; preds = %44, %32
  %34 = load i16, ptr %12, align 2, !tbaa !26
  %35 = zext i16 %34 to i32
  %36 = icmp slt i32 %35, 256
  br i1 %36, label %37, label %47

37:                                               ; preds = %33
  %38 = load i16, ptr %12, align 2, !tbaa !26
  %39 = trunc i16 %38 to i8
  %40 = load ptr, ptr %9, align 8, !tbaa !9
  %41 = load i16, ptr %12, align 2, !tbaa !26
  %42 = zext i16 %41 to i64
  %43 = getelementptr inbounds nuw i8, ptr %40, i64 %42
  store i8 %39, ptr %43, align 1, !tbaa !27
  br label %44

44:                                               ; preds = %37
  %45 = load i16, ptr %12, align 2, !tbaa !26
  %46 = add i16 %45, 1
  store i16 %46, ptr %12, align 2, !tbaa !26
  br label %33, !llvm.loop !96

47:                                               ; preds = %33
  br label %142

48:                                               ; preds = %22
  %49 = load ptr, ptr %9, align 8, !tbaa !9
  call void @llvm.memset.p0.i64(ptr align 1 %49, i8 0, i64 256, i1 false)
  %50 = getelementptr inbounds [256 x i8], ptr %11, i64 0, i64 0
  call void @llvm.memset.p0.i64(ptr align 16 %50, i8 0, i64 256, i1 false)
  %51 = load i16, ptr %8, align 2, !tbaa !26
  %52 = zext i16 %51 to i32
  %53 = icmp sgt i32 %52, 256
  br i1 %53, label %54, label %55

54:                                               ; preds = %48
  store i16 256, ptr %8, align 2, !tbaa !26
  br label %55

55:                                               ; preds = %54, %48
  store i16 1, ptr %12, align 2, !tbaa !26
  br label %56

56:                                               ; preds = %101, %55
  %57 = load i16, ptr %12, align 2, !tbaa !26
  %58 = zext i16 %57 to i32
  %59 = load i16, ptr %8, align 2, !tbaa !26
  %60 = zext i16 %59 to i32
  %61 = icmp slt i32 %58, %60
  br i1 %61, label %62, label %104

62:                                               ; preds = %56
  %63 = load ptr, ptr %7, align 8, !tbaa !32
  %64 = load i16, ptr %12, align 2, !tbaa !26
  %65 = zext i16 %64 to i64
  %66 = getelementptr inbounds nuw i16, ptr %63, i64 %65
  %67 = load i16, ptr %66, align 2, !tbaa !26
  %68 = sext i16 %67 to i32
  %69 = icmp eq i32 %68, -1
  br i1 %69, label %70, label %100

70:                                               ; preds = %62
  %71 = load i16, ptr %12, align 2, !tbaa !26
  %72 = trunc i16 %71 to i8
  store i8 %72, ptr %14, align 1, !tbaa !27
  %73 = load ptr, ptr %6, align 8, !tbaa !77
  %74 = getelementptr inbounds nuw %struct.UDataSwapper, ptr %73, i32 0, i32 12
  %75 = load ptr, ptr %74, align 8, !tbaa !93
  %76 = load ptr, ptr %6, align 8, !tbaa !77
  %77 = load ptr, ptr %10, align 8, !tbaa !12
  %78 = call noundef i32 %75(ptr noundef %76, ptr noundef %14, i32 noundef 1, ptr noundef %15, ptr noundef %77)
  %79 = load ptr, ptr %10, align 8, !tbaa !12
  %80 = load i32, ptr %79, align 4, !tbaa !13
  %81 = call noundef signext i8 @_ZL9U_FAILURE10UErrorCode(i32 noundef %80)
  %82 = icmp ne i8 %81, 0
  br i1 %82, label %83, label %91

83:                                               ; preds = %70
  %84 = load ptr, ptr %6, align 8, !tbaa !77
  %85 = load i16, ptr %12, align 2, !tbaa !26
  %86 = zext i16 %85 to i32
  %87 = load ptr, ptr %6, align 8, !tbaa !77
  %88 = getelementptr inbounds nuw %struct.UDataSwapper, ptr %87, i32 0, i32 1
  %89 = load i8, ptr %88, align 1, !tbaa !89
  %90 = zext i8 %89 to i32
  call void (ptr, ptr, ...) @udata_printError_77(ptr noundef %84, ptr noundef @.str.43, i32 noundef %86, i32 noundef %90)
  store i32 1, ptr %16, align 4
  br label %143

91:                                               ; preds = %70
  %92 = load i8, ptr %15, align 1, !tbaa !27
  %93 = load ptr, ptr %9, align 8, !tbaa !9
  %94 = load i8, ptr %14, align 1, !tbaa !27
  %95 = zext i8 %94 to i64
  %96 = getelementptr inbounds nuw i8, ptr %93, i64 %95
  store i8 %92, ptr %96, align 1, !tbaa !27
  %97 = load i8, ptr %15, align 1, !tbaa !27
  %98 = zext i8 %97 to i64
  %99 = getelementptr inbounds nuw [256 x i8], ptr %11, i64 0, i64 %98
  store i8 1, ptr %99, align 1, !tbaa !27
  br label %100

100:                                              ; preds = %91, %62
  br label %101

101:                                              ; preds = %100
  %102 = load i16, ptr %12, align 2, !tbaa !26
  %103 = add i16 %102, 1
  store i16 %103, ptr %12, align 2, !tbaa !26
  br label %56, !llvm.loop !97

104:                                              ; preds = %56
  store i16 1, ptr %13, align 2, !tbaa !26
  store i16 1, ptr %12, align 2, !tbaa !26
  br label %105

105:                                              ; preds = %138, %104
  %106 = load i16, ptr %12, align 2, !tbaa !26
  %107 = zext i16 %106 to i32
  %108 = load i16, ptr %8, align 2, !tbaa !26
  %109 = zext i16 %108 to i32
  %110 = icmp slt i32 %107, %109
  br i1 %110, label %111, label %141

111:                                              ; preds = %105
  %112 = load ptr, ptr %9, align 8, !tbaa !9
  %113 = load i16, ptr %12, align 2, !tbaa !26
  %114 = zext i16 %113 to i64
  %115 = getelementptr inbounds nuw i8, ptr %112, i64 %114
  %116 = load i8, ptr %115, align 1, !tbaa !27
  %117 = zext i8 %116 to i32
  %118 = icmp eq i32 %117, 0
  br i1 %118, label %119, label %137

119:                                              ; preds = %111
  br label %120

120:                                              ; preds = %126, %119
  %121 = load i16, ptr %13, align 2, !tbaa !26
  %122 = zext i16 %121 to i64
  %123 = getelementptr inbounds nuw [256 x i8], ptr %11, i64 0, i64 %122
  %124 = load i8, ptr %123, align 1, !tbaa !27
  %125 = icmp ne i8 %124, 0
  br i1 %125, label %126, label %129

126:                                              ; preds = %120
  %127 = load i16, ptr %13, align 2, !tbaa !26
  %128 = add i16 %127, 1
  store i16 %128, ptr %13, align 2, !tbaa !26
  br label %120, !llvm.loop !98

129:                                              ; preds = %120
  %130 = load i16, ptr %13, align 2, !tbaa !26
  %131 = add i16 %130, 1
  store i16 %131, ptr %13, align 2, !tbaa !26
  %132 = trunc i16 %130 to i8
  %133 = load ptr, ptr %9, align 8, !tbaa !9
  %134 = load i16, ptr %12, align 2, !tbaa !26
  %135 = zext i16 %134 to i64
  %136 = getelementptr inbounds nuw i8, ptr %133, i64 %135
  store i8 %132, ptr %136, align 1, !tbaa !27
  br label %137

137:                                              ; preds = %129, %111
  br label %138

138:                                              ; preds = %137
  %139 = load i16, ptr %12, align 2, !tbaa !26
  %140 = add i16 %139, 1
  store i16 %140, ptr %12, align 2, !tbaa !26
  br label %105, !llvm.loop !99

141:                                              ; preds = %105
  br label %142

142:                                              ; preds = %141, %47
  store i32 0, ptr %16, align 4
  br label %143

143:                                              ; preds = %142, %83, %21
  call void @llvm.lifetime.end.p0(i64 1, ptr %15) #12
  call void @llvm.lifetime.end.p0(i64 1, ptr %14) #12
  call void @llvm.lifetime.end.p0(i64 2, ptr %13) #12
  call void @llvm.lifetime.end.p0(i64 2, ptr %12) #12
  call void @llvm.lifetime.end.p0(i64 256, ptr %11) #12
  %144 = load i32, ptr %16, align 4
  switch i32 %144, label %146 [
    i32 0, label %145
    i32 1, label %145
  ]

145:                                              ; preds = %143, %143
  ret void

146:                                              ; preds = %143
  unreachable
}