; Function Attrs: mustprogress uwtable
define internal fastcc void @_ZL12makeTokenMapPK12UDataSwapperPstPhP10UErrorCode(ptr noundef %0, ptr noundef nonnull readonly captures(none) %1, i16 noundef zeroext %2, ptr noundef nonnull captures(none) %3, ptr noundef nonnull %4) unnamed_addr #0 {
  %6 = alloca [256 x i8], align 16
  %7 = alloca i8, align 1
  %8 = alloca i8, align 1
  call void @llvm.lifetime.start.p0(i64 256, ptr nonnull %6) #11
  call void @llvm.lifetime.start.p0(i64 1, ptr nonnull %7) #11
  call void @llvm.lifetime.start.p0(i64 1, ptr nonnull %8) #11
  %9 = load i32, ptr %4, align 4, !tbaa !3
  %10 = icmp slt i32 %9, 1
  br i1 %10, label %11, label %.loopexit

11:                                               ; preds = %5
  %12 = getelementptr inbounds nuw i8, ptr %0, i64 1
  %13 = load i8, ptr %12, align 1, !tbaa !104
  %14 = getelementptr inbounds nuw i8, ptr %0, i64 3
  %15 = load i8, ptr %14, align 1, !tbaa !105
  %16 = icmp eq i8 %13, %15
  br i1 %16, label %.preheader, label %19

.preheader:                                       ; preds = %11, %.preheader
  %indvars.iv57 = phi i64 [ %indvars.iv.next58, %.preheader ], [ 0, %11 ]
  %17 = trunc i64 %indvars.iv57 to i8
  %18 = getelementptr inbounds nuw i8, ptr %3, i64 %indvars.iv57
  store i8 %17, ptr %18, align 1, !tbaa !26
  %indvars.iv.next58 = add nuw nsw i64 %indvars.iv57, 1
  %exitcond60.not = icmp eq i64 %indvars.iv.next58, 256
  br i1 %exitcond60.not, label %.loopexit, label %.preheader, !llvm.loop !111

19:                                               ; preds = %11
  tail call void @llvm.memset.p0.i64(ptr noundef nonnull align 1 dereferenceable(256) %3, i8 0, i64 256, i1 false)
  call void @llvm.memset.p0.i64(ptr noundef nonnull align 16 dereferenceable(256) %6, i8 0, i64 256, i1 false)
  %spec.store.select = tail call i16 @llvm.umin.i16(i16 %2, i16 256)
  %20 = icmp ugt i16 %2, 1
  br i1 %20, label %.lr.ph, label %.loopexit

.lr.ph:                                           ; preds = %19
  %21 = getelementptr inbounds nuw i8, ptr %0, i64 72
  %wide.trip.count = zext nneg i16 %spec.store.select to i64
  br label %22

.lr.ph47.preheader:                               ; preds = %44
  %wide.trip.count55 = zext nneg i16 %spec.store.select to i64
  br label %.lr.ph47

22:                                               ; preds = %.lr.ph, %44
  %indvars.iv = phi i64 [ 1, %.lr.ph ], [ %indvars.iv.next, %44 ]
  %23 = getelementptr inbounds nuw i16, ptr %1, i64 %indvars.iv
  %24 = load i16, ptr %23, align 2, !tbaa !32
  %25 = icmp eq i16 %24, -1
  br i1 %25, label %26, label %44

26:                                               ; preds = %22
  %27 = trunc i64 %indvars.iv to i8
  store i8 %27, ptr %7, align 1, !tbaa !26
  %28 = load ptr, ptr %21, align 8, !tbaa !108
  %29 = call noundef i32 %28(ptr noundef %0, ptr noundef nonnull %7, i32 noundef 1, ptr noundef nonnull %8, ptr noundef nonnull %4)
  %30 = load i32, ptr %4, align 4, !tbaa !3
  %31 = icmp slt i32 %30, 1
  br i1 %31, label %37, label %32

32:                                               ; preds = %26
  %33 = trunc i64 %indvars.iv to i32
  %34 = and i32 %33, 65535
  %35 = load i8, ptr %12, align 1, !tbaa !104
  %36 = zext i8 %35 to i32
  call void (ptr, ptr, ...) @udata_printError_77(ptr noundef nonnull %0, ptr noundef nonnull @.str.43, i32 noundef %34, i32 noundef %36)
  br label %.loopexit

37:                                               ; preds = %26
  %38 = load i8, ptr %8, align 1, !tbaa !26
  %39 = load i8, ptr %7, align 1, !tbaa !26
  %40 = zext i8 %39 to i64
  %41 = getelementptr inbounds nuw i8, ptr %3, i64 %40
  store i8 %38, ptr %41, align 1, !tbaa !26
  %42 = zext i8 %38 to i64
  %43 = getelementptr inbounds nuw [256 x i8], ptr %6, i64 0, i64 %42
  store i8 1, ptr %43, align 1, !tbaa !26
  br label %44

44:                                               ; preds = %22, %37
  %indvars.iv.next = add nuw nsw i64 %indvars.iv, 1
  %exitcond.not = icmp eq i64 %indvars.iv.next, %wide.trip.count
  br i1 %exitcond.not, label %.lr.ph47.preheader, label %22, !llvm.loop !112

.lr.ph47:                                         ; preds = %.lr.ph47.preheader, %54
  %indvars.iv52 = phi i64 [ 1, %.lr.ph47.preheader ], [ %indvars.iv.next53, %54 ]
  %.046 = phi i16 [ 1, %.lr.ph47.preheader ], [ %.2, %54 ]
  %45 = getelementptr inbounds nuw i8, ptr %3, i64 %indvars.iv52
  %46 = load i8, ptr %45, align 1, !tbaa !26
  %47 = icmp eq i8 %46, 0
  br i1 %47, label %.preheader40, label %54

.preheader40:                                     ; preds = %.lr.ph47, %.preheader40
  %.1 = phi i16 [ %51, %.preheader40 ], [ %.046, %.lr.ph47 ]
  %48 = zext i16 %.1 to i64
  %49 = getelementptr inbounds nuw [256 x i8], ptr %6, i64 0, i64 %48
  %50 = load i8, ptr %49, align 1, !tbaa !26
  %.not38 = icmp eq i8 %50, 0
  %51 = add i16 %.1, 1
  br i1 %.not38, label %52, label %.preheader40, !llvm.loop !113

52:                                               ; preds = %.preheader40
  %53 = trunc i16 %.1 to i8
  store i8 %53, ptr %45, align 1, !tbaa !26
  br label %54

54:                                               ; preds = %.lr.ph47, %52
  %.2 = phi i16 [ %51, %52 ], [ %.046, %.lr.ph47 ]
  %indvars.iv.next53 = add nuw nsw i64 %indvars.iv52, 1
  %exitcond56.not = icmp eq i64 %indvars.iv.next53, %wide.trip.count55
  br i1 %exitcond56.not, label %.loopexit, label %.lr.ph47, !llvm.loop !114

.loopexit:                                        ; preds = %54, %.preheader, %19, %5, %32
  call void @llvm.lifetime.end.p0(i64 1, ptr nonnull %8) #11
  call void @llvm.lifetime.end.p0(i64 1, ptr nonnull %7) #11
  call void @llvm.lifetime.end.p0(i64 256, ptr nonnull %6) #11
  ret void
}